target datalayout = "e-m:e-p270:32:32-p271:32:32-p272:64:64-i64:64-i128:128-f80:128-n8:16:32:64-S128"
target triple = "x86_64-pc-linux-gnu"

%struct._wmem_tree_key_t = type { i32, ptr }
%struct.nvme_q_ctx = type { ptr, ptr, ptr, ptr, ptr, i16 }

; Function Attrs: nounwind null_pointer_is_valid sspstrong uwtable
define internal void @nvme_build_done_frame_key(ptr noundef %0, ptr noundef %1, ptr noundef %2) #5 {
  %4 = alloca ptr, align 8
  %5 = alloca ptr, align 8
  %6 = alloca ptr, align 8
  %7 = alloca i32, align 4
  store ptr %0, ptr %4, align 8
  store ptr %1, ptr %5, align 8
  store ptr %2, ptr %6, align 8
  call void @llvm.lifetime.start.p0(i64 4, ptr %7) #9
  store i32 0, ptr %7, align 4
  %8 = load ptr, ptr %5, align 8
  %9 = icmp ne ptr %8, null
  br i1 %9, label %10, label %18

10:                                               ; preds = %3
  %11 = load ptr, ptr %4, align 8
  %12 = getelementptr %struct._wmem_tree_key_t, ptr %11, i64 0
  %13 = getelementptr inbounds nuw %struct._wmem_tree_key_t, ptr %12, i32 0, i32 0
  store i32 1, ptr %13, align 8
  %14 = load ptr, ptr %5, align 8
  %15 = load ptr, ptr %4, align 8
  %16 = getelementptr %struct._wmem_tree_key_t, ptr %15, i64 0
  %17 = getelementptr inbounds nuw %struct._wmem_tree_key_t, ptr %16, i32 0, i32 1
  store ptr %14, ptr %17, align 8
  store i32 1, ptr %7, align 4
  br label %18

18:                                               ; preds = %10, %3
  %19 = load ptr, ptr %4, align 8
  %20 = load i32, ptr %7, align 4
  %21 = zext i32 %20 to i64
  %22 = getelementptr %struct._wmem_tree_key_t, ptr %19, i64 %21
  %23 = getelementptr inbounds nuw %struct._wmem_tree_key_t, ptr %22, i32 0, i32 0
  store i32 1, ptr %23, align 8
  %24 = load ptr, ptr %6, align 8
  %25 = load ptr, ptr %4, align 8
  %26 = load i32, ptr %7, align 4
  %27 = zext i32 %26 to i64
  %28 = getelementptr %struct._wmem_tree_key_t, ptr %25, i64 %27
  %29 = getelementptr inbounds nuw %struct._wmem_tree_key_t, ptr %28, i32 0, i32 1
  store ptr %24, ptr %29, align 8
  %30 = load i32, ptr %7, align 4
  %31 = add i32 %30, 1
  store i32 %31, ptr %7, align 4
  %32 = load ptr, ptr %4, align 8
  %33 = load i32, ptr %7, align 4
  %34 = zext i32 %33 to i64
  %35 = getelementptr %struct._wmem_tree_key_t, ptr %32, i64 %34
  %36 = getelementptr inbounds nuw %struct._wmem_tree_key_t, ptr %35, i32 0, i32 0
  store i32 0, ptr %36, align 8
  %37 = load ptr, ptr %4, align 8
  %38 = load i32, ptr %7, align 4
  %39 = zext i32 %38 to i64
  %40 = getelementptr %struct._wmem_tree_key_t, ptr %37, i64 %39
  %41 = getelementptr inbounds nuw %struct._wmem_tree_key_t, ptr %40, i32 0, i32 1
  store ptr null, ptr %41, align 8
  call void @llvm.lifetime.end.p0(i64 4, ptr %7) #9
  ret void
}

; Function Attrs: null_pointer_is_valid sspstrong uwtable
define hidden void @nvme_add_data_tr_off(ptr noundef %0, i32 noundef %1, i32 noundef %2) #0 {
  %4 = alloca ptr, align 8
  %5 = alloca i32, align 4
  %6 = alloca i32, align 4
  %7 = alloca [2 x %struct._wmem_tree_key_t], align 16
  store ptr %0, ptr %4, align 8
  store i32 %1, ptr %5, align 4
  store i32 %2, ptr %6, align 4
  call void @llvm.lifetime.start.p0(i64 32, ptr %7) #9
  %8 = getelementptr inbounds [2 x %struct._wmem_tree_key_t], ptr %7, i64 0, i64 0
  call void @nvme_build_done_frame_key(ptr noundef %8, ptr noundef null, ptr noundef %6)
  %9 = load ptr, ptr %4, align 8
  %10 = getelementptr inbounds nuw %struct.nvme_q_ctx, ptr %9, i32 0, i32 4
  %11 = load ptr, ptr %10, align 8
  %12 = getelementptr inbounds [2 x %struct._wmem_tree_key_t], ptr %7, i64 0, i64 0
  %13 = load i32, ptr %5, align 4
  %14 = zext i32 %13 to i64
  %15 = inttoptr i64 %14 to ptr
  call void @wmem_tree_insert32_array(ptr noundef %11, ptr noundef %12, ptr noundef %15)
  call void @llvm.lifetime.end.p0(i64 32, ptr %7) #9
  ret void
}