; Function Attrs: null_pointer_is_valid sspstrong uwtable
define hidden void @nvme_add_data_tr_off(ptr noundef readonly captures(none) %0, i32 noundef %1, i32 noundef %2) local_unnamed_addr #0 {
  %4 = alloca i32, align 4
  %5 = alloca [2 x %struct._wmem_tree_key_t], align 16
  store i32 %2, ptr %4, align 4
  call void @llvm.lifetime.start.p0(i64 32, ptr nonnull %5) #10
  store i32 1, ptr %5, align 16
  %6 = getelementptr inbounds nuw i8, ptr %5, i64 8
  store ptr %4, ptr %6, align 8
  %7 = getelementptr inbounds nuw i8, ptr %5, i64 16
  store i32 0, ptr %7, align 16
  %8 = getelementptr inbounds nuw i8, ptr %5, i64 24
  store ptr null, ptr %8, align 8
  %9 = getelementptr inbounds nuw i8, ptr %0, i64 32
  %10 = load ptr, ptr %9, align 8
  %11 = zext i32 %1 to i64
  %12 = inttoptr i64 %11 to ptr
  call void @wmem_tree_insert32_array(ptr noundef %10, ptr noundef nonnull %5, ptr noundef %12)
  call void @llvm.lifetime.end.p0(i64 32, ptr nonnull %5) #10
  ret void
}